target datalayout = "e-m:e-p270:32:32-p271:32:32-p272:64:64-i64:64-i128:128-f80:128-n8:16:32:64-S128"
target triple = "x86_64-pc-linux-gnu"

%struct.z_stream_s = type { ptr, i32, i64, ptr, i32, i64, ptr, ptr, ptr, ptr, ptr, i32, i64, i64 }
%struct.wtap_writer = type { i32, i64, i32, i32, ptr, ptr, ptr, i32, i32, i32, ptr, %struct.z_stream_s }

; Function Attrs: null_pointer_is_valid sspstrong uwtable
define hidden ptr @gzwfile_fdopen(i32 noundef %0) #0 {
  %2 = alloca ptr, align 8
  %3 = alloca i32, align 4
  %4 = alloca ptr, align 8
  %5 = alloca i32, align 4
  store i32 %0, ptr %3, align 4
  call void @llvm.lifetime.start.p0(i64 8, ptr %4) #14
  %6 = call noalias ptr @g_try_malloc(i64 noundef 184) #16
  store ptr %6, ptr %4, align 8
  %7 = load ptr, ptr %4, align 8
  %8 = icmp eq ptr %7, null
  br i1 %8, label %9, label %10

9:                                                ; preds = %1
  store ptr null, ptr %2, align 8
  store i32 1, ptr %5, align 4
  br label %32

10:                                               ; preds = %1
  %11 = load i32, ptr %3, align 4
  %12 = load ptr, ptr %4, align 8
  %13 = getelementptr inbounds nuw %struct.wtap_writer, ptr %12, i32 0, i32 0
  store i32 %11, ptr %13, align 8
  %14 = load ptr, ptr %4, align 8
  %15 = getelementptr inbounds nuw %struct.wtap_writer, ptr %14, i32 0, i32 2
  store i32 0, ptr %15, align 8
  %16 = load ptr, ptr %4, align 8
  %17 = getelementptr inbounds nuw %struct.wtap_writer, ptr %16, i32 0, i32 3
  store i32 4096, ptr %17, align 4
  %18 = load ptr, ptr %4, align 8
  %19 = getelementptr inbounds nuw %struct.wtap_writer, ptr %18, i32 0, i32 7
  store i32 -1, ptr %19, align 8
  %20 = load ptr, ptr %4, align 8
  %21 = getelementptr inbounds nuw %struct.wtap_writer, ptr %20, i32 0, i32 8
  store i32 0, ptr %21, align 4
  %22 = load ptr, ptr %4, align 8
  %23 = getelementptr inbounds nuw %struct.wtap_writer, ptr %22, i32 0, i32 9
  store i32 0, ptr %23, align 8
  %24 = load ptr, ptr %4, align 8
  %25 = getelementptr inbounds nuw %struct.wtap_writer, ptr %24, i32 0, i32 10
  store ptr null, ptr %25, align 8
  %26 = load ptr, ptr %4, align 8
  %27 = getelementptr inbounds nuw %struct.wtap_writer, ptr %26, i32 0, i32 1
  store i64 0, ptr %27, align 8
  %28 = load ptr, ptr %4, align 8
  %29 = getelementptr inbounds nuw %struct.wtap_writer, ptr %28, i32 0, i32 11
  %30 = getelementptr inbounds nuw %struct.z_stream_s, ptr %29, i32 0, i32 1
  store i32 0, ptr %30, align 8
  %31 = load ptr, ptr %4, align 8
  store ptr %31, ptr %2, align 8
  store i32 1, ptr %5, align 4
  br label %32

32:                                               ; preds = %10, %9
  call void @llvm.lifetime.end.p0(i64 8, ptr %4) #14
  %33 = load ptr, ptr %2, align 8
  ret ptr %33
}

; Function Attrs: null_pointer_is_valid sspstrong uwtable
define hidden ptr @gzwfile_open(ptr noundef %0) #0 {
  %2 = alloca ptr, align 8
  %3 = alloca ptr, align 8
  %4 = alloca i32, align 4
  %5 = alloca ptr, align 8
  %6 = alloca i32, align 4
  %7 = alloca i32, align 4
  store ptr %0, ptr %3, align 8
  call void @llvm.lifetime.start.p0(i64 4, ptr %4) #14
  call void @llvm.lifetime.start.p0(i64 8, ptr %5) #14
  call void @llvm.lifetime.start.p0(i64 4, ptr %6) #14
  %8 = load ptr, ptr %3, align 8
  %9 = call i32 (ptr, i32, ...) @open(ptr noundef %8, i32 noundef 577, i32 noundef 438)
  store i32 %9, ptr %4, align 4
  %10 = load i32, ptr %4, align 4
  %11 = icmp eq i32 %10, -1
  br i1 %11, label %12, label %13

12:                                               ; preds = %1
  store ptr null, ptr %2, align 8
  store i32 1, ptr %7, align 4
  br label %27

13:                                               ; preds = %1
  %14 = load i32, ptr %4, align 4
  %15 = call ptr @gzwfile_fdopen(i32 noundef %14)
  store ptr %15, ptr %5, align 8
  %16 = load ptr, ptr %5, align 8
  %17 = icmp eq ptr %16, null
  br i1 %17, label %18, label %25

18:                                               ; preds = %13
  %19 = call ptr @__errno_location() #17
  %20 = load i32, ptr %19, align 4
  store i32 %20, ptr %6, align 4
  %21 = load i32, ptr %4, align 4
  %22 = call i32 @close(i32 noundef %21)
  %23 = load i32, ptr %6, align 4
  %24 = call ptr @__errno_location() #17
  store i32 %23, ptr %24, align 4
  br label %25

25:                                               ; preds = %18, %13
  %26 = load ptr, ptr %5, align 8
  store ptr %26, ptr %2, align 8
  store i32 1, ptr %7, align 4
  br label %27

27:                                               ; preds = %25, %12
  call void @llvm.lifetime.end.p0(i64 4, ptr %6) #14
  call void @llvm.lifetime.end.p0(i64 8, ptr %5) #14
  call void @llvm.lifetime.end.p0(i64 4, ptr %4) #14
  %28 = load ptr, ptr %2, align 8
  ret ptr %28
}