; Function Attrs: null_pointer_is_valid sspstrong uwtable
define hidden noalias noundef ptr @gzwfile_open(ptr noundef readonly captures(none) %0) local_unnamed_addr #0 {
  %2 = tail call i32 (ptr, i32, ...) @open(ptr noundef %0, i32 noundef 577, i32 noundef 438)
  %3 = icmp eq i32 %2, -1
  br i1 %3, label %19, label %4

4:                                                ; preds = %1
  %5 = tail call noalias dereferenceable_or_null(184) ptr @g_try_malloc(i64 noundef 184) #22
  %6 = icmp eq ptr %5, null
  br i1 %6, label %15, label %gzwfile_fdopen.exit

gzwfile_fdopen.exit:                              ; preds = %4
  store i32 %2, ptr %5, align 8
  %7 = getelementptr inbounds nuw i8, ptr %5, i64 16
  store i32 0, ptr %7, align 8
  %8 = getelementptr inbounds nuw i8, ptr %5, i64 20
  store i32 4096, ptr %8, align 4
  %9 = getelementptr inbounds nuw i8, ptr %5, i64 48
  store i32 -1, ptr %9, align 8
  %10 = getelementptr inbounds nuw i8, ptr %5, i64 52
  store i32 0, ptr %10, align 4
  %11 = getelementptr inbounds nuw i8, ptr %5, i64 56
  store i32 0, ptr %11, align 8
  %12 = getelementptr inbounds nuw i8, ptr %5, i64 64
  store ptr null, ptr %12, align 8
  %13 = getelementptr inbounds nuw i8, ptr %5, i64 8
  store i64 0, ptr %13, align 8
  %14 = getelementptr inbounds nuw i8, ptr %5, i64 80
  store i32 0, ptr %14, align 8
  br label %19

15:                                               ; preds = %4
  %16 = tail call ptr @__errno_location() #23
  %17 = load i32, ptr %16, align 4
  %18 = tail call i32 @close(i32 noundef %2)
  store i32 %17, ptr %16, align 4
  br label %19

19:                                               ; preds = %gzwfile_fdopen.exit, %15, %1
  %.0 = phi ptr [ null, %1 ], [ null, %15 ], [ %5, %gzwfile_fdopen.exit ]
  ret ptr %.0
}